; ModuleID = '19/2458.c'
source_filename = "19/2458.c"
target datalayout = "e-m:e-p270:32:32-p271:32:32-p272:64:64-i64:64-f80:128-n8:16:32:64-S128"
target triple = "x86_64-pc-linux-gnu"

@.str = private unnamed_addr constant [3 x i8] c"%c\00", align 1
@.str.1 = private unnamed_addr constant [3 x i8] c"%s\00", align 1

; Function Attrs: noinline nounwind uwtable
define dso_local i32 @main() #0 {
  %1 = alloca i32, align 4
  %2 = alloca i32, align 4
  %3 = alloca i32, align 4
  %4 = alloca i32, align 4
  %5 = alloca i32, align 4
  %6 = alloca i32, align 4
  %7 = alloca i32, align 4
  %8 = alloca i32, align 4
  %9 = alloca i32, align 4
  %10 = alloca i32, align 4
  %11 = alloca i32, align 4
  %12 = alloca i32, align 4
  %13 = alloca i32, align 4
  %14 = alloca [100 x i8], align 16
  %15 = alloca [100 x i8], align 16
  %16 = alloca [100 x i8], align 16
  store i32 0, i32* %1, align 4
  %17 = getelementptr inbounds [100 x i8], [100 x i8]* %14, i64 0, i64 0
  %18 = call i32 (i8*, ...) bitcast (i32 (...)* @gets to i32 (i8*, ...)*)(i8* %17)
  %19 = getelementptr inbounds [100 x i8], [100 x i8]* %15, i64 0, i64 0
  %20 = call i32 (i8*, ...) bitcast (i32 (...)* @gets to i32 (i8*, ...)*)(i8* %19)
  %21 = getelementptr inbounds [100 x i8], [100 x i8]* %16, i64 0, i64 0
  %22 = call i32 (i8*, ...) bitcast (i32 (...)* @gets to i32 (i8*, ...)*)(i8* %21)
  %23 = getelementptr inbounds [100 x i8], [100 x i8]* %14, i64 0, i64 0
  %24 = call i64 @strlen(i8* %23) #3
  %25 = trunc i64 %24 to i32
  store i32 %25, i32* %8, align 4
  %26 = getelementptr inbounds [100 x i8], [100 x i8]* %15, i64 0, i64 0
  %27 = call i64 @strlen(i8* %26) #3
  %28 = trunc i64 %27 to i32
  store i32 %28, i32* %6, align 4
  %29 = getelementptr inbounds [100 x i8], [100 x i8]* %16, i64 0, i64 0
  %30 = call i64 @strlen(i8* %29) #3
  %31 = trunc i64 %30 to i32
  store i32 %31, i32* %7, align 4
  store i32 0, i32* %5, align 4
  store i32 0, i32* %13, align 4
  store i32 0, i32* %2, align 4
  br label %32

32:                                               ; preds = %142, %0
  %33 = load i32, i32* %2, align 4
  %34 = load i32, i32* %8, align 4
  %35 = icmp slt i32 %33, %34
  br i1 %35, label %36, label %145

36:                                               ; preds = %32
  store i32 0, i32* %9, align 4
  %37 = load i32, i32* %2, align 4
  %38 = sext i32 %37 to i64
  %39 = getelementptr inbounds [100 x i8], [100 x i8]* %14, i64 0, i64 %38
  %40 = load i8, i8* %39, align 1
  %41 = sext i8 %40 to i32
  %42 = getelementptr inbounds [100 x i8], [100 x i8]* %15, i64 0, i64 0
  %43 = load i8, i8* %42, align 16
  %44 = sext i8 %43 to i32
  %45 = icmp eq i32 %41, %44
  br i1 %45, label %46, label %89

46:                                               ; preds = %36
  %47 = load i32, i32* %2, align 4
  %48 = icmp eq i32 %47, 0
  br i1 %48, label %57, label %49

49:                                               ; preds = %46
  %50 = load i32, i32* %2, align 4
  %51 = sub nsw i32 %50, 1
  %52 = sext i32 %51 to i64
  %53 = getelementptr inbounds [100 x i8], [100 x i8]* %14, i64 0, i64 %52
  %54 = load i8, i8* %53, align 1
  %55 = sext i8 %54 to i32
  %56 = icmp eq i32 %55, 32
  br i1 %56, label %57, label %89

57:                                               ; preds = %49, %46
  store i32 1, i32* %12, align 4
  store i32 1, i32* %3, align 4
  br label %58

58:                                               ; preds = %85, %57
  %59 = load i32, i32* %3, align 4
  %60 = load i32, i32* %6, align 4
  %61 = icmp slt i32 %59, %60
  br i1 %61, label %62, label %88

62:                                               ; preds = %58
  %63 = load i32, i32* %3, align 4
  %64 = sext i32 %63 to i64
  %65 = getelementptr inbounds [100 x i8], [100 x i8]* %15, i64 0, i64 %64
  %66 = load i8, i8* %65, align 1
  %67 = sext i8 %66 to i32
  %68 = load i32, i32* %2, align 4
  %69 = load i32, i32* %3, align 4
  %70 = add nsw i32 %68, %69
  %71 = sext i32 %70 to i64
  %72 = getelementptr inbounds [100 x i8], [100 x i8]* %14, i64 0, i64 %71
  %73 = load i8, i8* %72, align 1
  %74 = sext i8 %73 to i32
  %75 = icmp ne i32 %67, %74
  br i1 %75, label %76, label %77

76:                                               ; preds = %62
  store i32 0, i32* %9, align 4
  br label %88

77:                                               ; preds = %62
  %78 = load i32, i32* %12, align 4
  %79 = add nsw i32 %78, 1
  store i32 %79, i32* %12, align 4
  store i32 1, i32* %9, align 4
  %80 = load i32, i32* %2, align 4
  store i32 %80, i32* %10, align 4
  %81 = load i32, i32* %2, align 4
  %82 = load i32, i32* %6, align 4
  %83 = add nsw i32 %81, %82
  %84 = sub nsw i32 %83, 1
  store i32 %84, i32* %11, align 4
  br label %85

85:                                               ; preds = %77
  %86 = load i32, i32* %3, align 4
  %87 = add nsw i32 %86, 1
  store i32 %87, i32* %3, align 4
  br label %58

88:                                               ; preds = %76, %58
  br label %89

89:                                               ; preds = %88, %49, %36
  %90 = load i32, i32* %9, align 4
  %91 = icmp eq i32 %90, 1
  br i1 %91, label %92, label %141

92:                                               ; preds = %89
  %93 = load i32, i32* %2, align 4
  %94 = load i32, i32* %6, align 4
  %95 = add nsw i32 %93, %94
  %96 = load i32, i32* %8, align 4
  %97 = icmp eq i32 %95, %96
  br i1 %97, label %107, label %98

98:                                               ; preds = %92
  %99 = load i32, i32* %2, align 4
  %100 = load i32, i32* %6, align 4
  %101 = add nsw i32 %99, %100
  %102 = sext i32 %101 to i64
  %103 = getelementptr inbounds [100 x i8], [100 x i8]* %14, i64 0, i64 %102
  %104 = load i8, i8* %103, align 1
  %105 = sext i8 %104 to i32
  %106 = icmp eq i32 %105, 32
  br i1 %106, label %107, label %141

107:                                              ; preds = %98, %92
  %108 = load i32, i32* %5, align 4
  store i32 %108, i32* %4, align 4
  br label %109

109:                                              ; preds = %120, %107
  %110 = load i32, i32* %4, align 4
  %111 = load i32, i32* %10, align 4
  %112 = icmp slt i32 %110, %111
  br i1 %112, label %113, label %123

113:                                              ; preds = %109
  %114 = load i32, i32* %4, align 4
  %115 = sext i32 %114 to i64
  %116 = getelementptr inbounds [100 x i8], [100 x i8]* %14, i64 0, i64 %115
  %117 = load i8, i8* %116, align 1
  %118 = sext i8 %117 to i32
  %119 = call i32 (i8*, ...) @printf(i8* getelementptr inbounds ([3 x i8], [3 x i8]* @.str, i64 0, i64 0), i32 %118)
  br label %120

120:                                              ; preds = %113
  %121 = load i32, i32* %4, align 4
  %122 = add nsw i32 %121, 1
  store i32 %122, i32* %4, align 4
  br label %109

123:                                              ; preds = %109
  store i32 0, i32* %4, align 4
  br label %124

124:                                              ; preds = %135, %123
  %125 = load i32, i32* %4, align 4
  %126 = load i32, i32* %7, align 4
  %127 = icmp slt i32 %125, %126
  br i1 %127, label %128, label %138

128:                                              ; preds = %124
  %129 = load i32, i32* %4, align 4
  %130 = sext i32 %129 to i64
  %131 = getelementptr inbounds [100 x i8], [100 x i8]* %16, i64 0, i64 %130
  %132 = load i8, i8* %131, align 1
  %133 = sext i8 %132 to i32
  %134 = call i32 (i8*, ...) @printf(i8* getelementptr inbounds ([3 x i8], [3 x i8]* @.str, i64 0, i64 0), i32 %133)
  br label %135

135:                                              ; preds = %128
  %136 = load i32, i32* %4, align 4
  %137 = add nsw i32 %136, 1
  store i32 %137, i32* %4, align 4
  br label %124

138:                                              ; preds = %124
  %139 = load i32, i32* %11, align 4
  %140 = add nsw i32 %139, 1
  store i32 %140, i32* %5, align 4
  store i32 1, i32* %13, align 4
  br label %141

141:                                              ; preds = %138, %98, %89
  br label %142

142:                                              ; preds = %141
  %143 = load i32, i32* %2, align 4
  %144 = add nsw i32 %143, 1
  store i32 %144, i32* %2, align 4
  br label %32

145:                                              ; preds = %32
  %146 = load i32, i32* %13, align 4
  %147 = icmp eq i32 %146, 0
  br i1 %147, label %148, label %151

148:                                              ; preds = %145
  %149 = getelementptr inbounds [100 x i8], [100 x i8]* %14, i64 0, i64 0
  %150 = call i32 (i8*, ...) @printf(i8* getelementptr inbounds ([3 x i8], [3 x i8]* @.str.1, i64 0, i64 0), i8* %149)
  br label %151

151:                                              ; preds = %148, %145
  %152 = load i32, i32* %13, align 4
  %153 = icmp eq i32 %152, 1
  br i1 %153, label %154, label %171

154:                                              ; preds = %151
  %155 = load i32, i32* %5, align 4
  store i32 %155, i32* %2, align 4
  br label %156

156:                                              ; preds = %167, %154
  %157 = load i32, i32* %2, align 4
  %158 = load i32, i32* %8, align 4
  %159 = icmp slt i32 %157, %158
  br i1 %159, label %160, label %170

160:                                              ; preds = %156
  %161 = load i32, i32* %2, align 4
  %162 = sext i32 %161 to i64
  %163 = getelementptr inbounds [100 x i8], [100 x i8]* %14, i64 0, i64 %162
  %164 = load i8, i8* %163, align 1
  %165 = sext i8 %164 to i32
  %166 = call i32 (i8*, ...) @printf(i8* getelementptr inbounds ([3 x i8], [3 x i8]* @.str, i64 0, i64 0), i32 %165)
  br label %167

167:                                              ; preds = %160
  %168 = load i32, i32* %2, align 4
  %169 = add nsw i32 %168, 1
  store i32 %169, i32* %2, align 4
  br label %156

170:                                              ; preds = %156
  br label %171

171:                                              ; preds = %170, %151
  ret i32 0
}

declare dso_local i32 @gets(...) #1

; Function Attrs: nounwind readonly
declare dso_local i64 @strlen(i8*) #2

declare dso_local i32 @printf(i8*, ...) #1


!llvm.module.flags = !{!0}
!llvm.ident = !{!1}

!0 = !{i32 1, !"wchar_size", i32 4}
!1 = !{!"clang version 10.0.0-4ubuntu1 "}
